BL51 BANKED LINKER/LOCATER V6.05              07/03/2008  13:36:55  PAGE 1


BL51 BANKED LINKER/LOCATER V6.05, INVOKED BY:
C:\SILABS\MCU\IDEFILES\C51\BIN\BL51.EXE C:\Documents and Settings\Tyler Long\M
>> y Documents\School\ECET 3220\Code\LCD_Test\LCD_Test.obj TO C:\Documents and
>>  Settings\Tyler Long\My Documents\School\ECET 3220\Code\LCD_Test\LCD_Test R
>> S (256) PL (68) PW (78)


INPUT MODULES INCLUDED:
  C:\Documents and Settings\Tyler Long\My Documents\School\ECET 3220\Code\LCD_
>> Test\LCD_Test.obj (LCD_TEST)


LINK MAP OF MODULE:  C:\Documents and Settings\Tyler Long\My Documents\School\
>> ECET 3220\Code\LCD_Test\LCD_Test (LCD_TEST)


            TYPE    BASE      LENGTH    RELOCATION   SEGMENT NAME
            -----------------------------------------------------

            * * * * * * *   D A T A   M E M O R Y   * * * * * * *
            REG     0000H     0008H     ABSOLUTE     "REG BANK 0"

            * * * * * * *   C O D E   M E M O R Y   * * * * * * *
            CODE    0000H     047FH     ABSOLUTE     



SYMBOL TABLE OF MODULE:  C:\Documents and Settings\Tyler Long\My Documents\Sch
>> ool\ECET 3220\Code\LCD_Test\LCD_Test (LCD_TEST)

  VALUE           TYPE          NAME
  ----------------------------------

  -------         MODULE        LCD_TEST
  B:00C0H.2       SYMBOL        AA
  B:00D0H.6       SYMBOL        AC
  D:00E0H         SYMBOL        ACC
  B:00E8H.4       SYMBOL        AD0BUSY
  B:00E8H.7       SYMBOL        AD0EN
  B:00E8H.5       SYMBOL        AD0INT
  B:00E8H.0       SYMBOL        AD0LJST
  B:00E8H.2       SYMBOL        AD0STM0
  B:00E8H.3       SYMBOL        AD0STM1
  B:00E8H.6       SYMBOL        AD0TM
  B:00E8H.1       SYMBOL        AD0WINT
  D:00BCH         SYMBOL        ADC0CF
  D:00E8H         SYMBOL        ADC0CN
  D:00C5H         SYMBOL        ADC0GTH
  D:00C4H         SYMBOL        ADC0GTL
  D:00BFH         SYMBOL        ADC0H
  D:00BEH         SYMBOL        ADC0L
  D:00C7H         SYMBOL        ADC0LTH
  D:00C6H         SYMBOL        ADC0LTL
  D:009CH         SYMBOL        ADC1
  D:00ABH         SYMBOL        ADC1CF
  D:00AAH         SYMBOL        ADC1CN
  D:00BAH         SYMBOL        AMX0CF
  D:00BBH         SYMBOL        AMX0SL
  D:00ACH         SYMBOL        AMX1SL
  D:00F0H         SYMBOL        B
  B:00D8H.0       SYMBOL        CCF0
  B:00D8H.1       SYMBOL        CCF1
  B:00D8H.2       SYMBOL        CCF2
  B:00D8H.3       SYMBOL        CCF3
  B:00D8H.4       SYMBOL        CCF4
  B:00D8H.7       SYMBOL        CF
BL51 BANKED LINKER/LOCATER V6.05            07/03/2008  13:36:55  PAGE 2


  D:008EH         SYMBOL        CKCON
  B:00C8H.0       SYMBOL        CPRL2
  D:009EH         SYMBOL        CPT0CN
  D:009FH         SYMBOL        CPT1CN
  B:00D8H.6       SYMBOL        CR
  B:00C8H.1       SYMBOL        CT2
  B:00D0H.7       SYMBOL        CY
  D:00D4H         SYMBOL        DAC0CN
  D:00D3H         SYMBOL        DAC0H
  D:00D2H         SYMBOL        DAC0L
  D:00D7H         SYMBOL        DAC1CN
  D:00D6H         SYMBOL        DAC1H
  D:00D5H         SYMBOL        DAC1L
  N:0014H         SYMBOL        DISP_AUTOSHIFT_CURSOR
  N:0010H         SYMBOL        DISP_BACKSPACE
  N:0001H         SYMBOL        DISP_CLR
  N:000FH         SYMBOL        DISP_CURSOR
  N:0006H         SYMBOL        DISP_ENTRY_MODE
  N:0038H         SYMBOL        DISP_FUNCTION_CMD
  N:000CH         SYMBOL        DISP_ON
  N:001CH         SYMBOL        DISP_SHIFTRT
  D:0083H         SYMBOL        DPH
  D:0082H         SYMBOL        DPL
  B:00A8H.7       SYMBOL        EA
  D:00E6H         SYMBOL        EIE1
  D:00E7H         SYMBOL        EIE2
  D:00F6H         SYMBOL        EIP1
  D:00F7H         SYMBOL        EIP2
  D:00A3H         SYMBOL        EMI0CF
  D:00AFH         SYMBOL        EMI0CN
  D:00A1H         SYMBOL        EMI0TC
  C:0343H         SYMBOL        EMI_INIT
  B:00C0H.6       SYMBOL        ENSMB
  B:00A8H.4       SYMBOL        ES
  B:00A8H.1       SYMBOL        ET0
  B:00A8H.3       SYMBOL        ET1
  B:00A8H.5       SYMBOL        ET2
  B:00A8H.0       SYMBOL        EX0
  B:00A8H.2       SYMBOL        EX1
  B:00C8H.3       SYMBOL        EXEN2
  B:00C8H.6       SYMBOL        EXF2
  B:00D0H.5       SYMBOL        F0
  B:00D0H.1       SYMBOL        F1
  D:00B7H         SYMBOL        FLACL
  D:00B6H         SYMBOL        FLSCL
  D:00A8H         SYMBOL        IE
  B:0088H.1       SYMBOL        IE0
  B:0088H.3       SYMBOL        IE1
  C:0372H         SYMBOL        INIT_DEVICE
  C:036EH         SYMBOL        INTERRUPTS_INIT
  D:00B8H         SYMBOL        IP
  B:0088H.0       SYMBOL        IT0
  B:0088H.2       SYMBOL        IT1
  C:01E7H         SYMBOL        KEY_BACKSPACE
  C:01CBH         SYMBOL        KEY_BLUE
  C:042BH         SYMBOL        KEY_BLUE_NUM
  C:01C4H         SYMBOL        KEY_CAPS
  C:0207H         SYMBOL        KEY_ENTER
  C:0243H         SYMBOL        KEY_FUNC_BLUE
  C:02B6H         SYMBOL        KEY_FUNC_BLUEKEY
  C:023EH         SYMBOL        KEY_FUNC_CAPS
  C:02BBH         SYMBOL        KEY_FUNC_FINISH
  C:025FH         SYMBOL        KEY_FUNC_GREEN
  C:029CH         SYMBOL        KEY_FUNC_GREENKEY
  C:0251H         SYMBOL        KEY_FUNC_PINK
BL51 BANKED LINKER/LOCATER V6.05            07/03/2008  13:36:55  PAGE 3


  C:02A9H         SYMBOL        KEY_FUNC_PINKKEY
  C:026DH         SYMBOL        KEY_FUNC_RED
  C:028FH         SYMBOL        KEY_FUNC_REDKEY
  C:027BH         SYMBOL        KEY_FUNC_RESOLVE
  C:01D9H         SYMBOL        KEY_GREEN
  C:044FH         SYMBOL        KEY_GREEN_LC
  C:045BH         SYMBOL        KEY_GREEN_UPC
  C:016FH         SYMBOL        KEY_ISR
  C:0230H         SYMBOL        KEY_KEYRELEASE
  C:0212H         SYMBOL        KEY_LCDLINE2
  C:01D2H         SYMBOL        KEY_PINK
  C:0437H         SYMBOL        KEY_PINK_LC
  C:0443H         SYMBOL        KEY_PINK_UPC
  N:4000H         SYMBOL        KEY_READ
  C:01E0H         SYMBOL        KEY_RED
  C:0467H         SYMBOL        KEY_RED_LC
  C:0473H         SYMBOL        KEY_RED_UPC
  C:021EH         SYMBOL        KEY_REPEAT
  C:0330H         SYMBOL        LCD_BUSY
  C:0325H         SYMBOL        LCD_CLEAR
  N:1200H         SYMBOL        LCD_CMD
  C:0418H         SYMBOL        LCD_CURRENT_PW
  C:03B1H         SYMBOL        LCD_HOME
  C:02C2H         SYMBOL        LCD_INIT
  C:0385H         SYMBOL        LCD_INITIALIZING
  C:03E8H         SYMBOL        LCD_MAIN_MENU
  C:03A3H         SYMBOL        LCD_PASSWORD_ENTRY
  C:02E4H         SYMBOL        LCD_PRINT
  C:0396H         SYMBOL        LCD_PRO_TEX
  N:1100H         SYMBOL        LCD_READ
  C:02F8H         SYMBOL        LCD_RESTORE
  C:0305H         SYMBOL        LCD_RETURN
  C:031BH         SYMBOL        LCD_TIMER0_OV
  C:0311H         SYMBOL        LCD_WAIT_3SEC
  N:1000H         SYMBOL        LCD_WRITE
  C:0030H         SYMBOL        MAIN
  B:00F8H.5       SYMBOL        MODF
  B:00F8H.1       SYMBOL        MSTEN
  D:00B2H         SYMBOL        OSCICN
  C:035AH         SYMBOL        OSCILLATOR_INIT
  D:00B1H         SYMBOL        OSCXCN
  C:035FH         SYMBOL        OSC_WAIT1
  C:0365H         SYMBOL        OSC_WAIT2
  B:00D0H.2       SYMBOL        OV
  B:00D0H.0       SYMBOL        P
  D:0080H         SYMBOL        P0
  D:00A4H         SYMBOL        P0MDOUT
  D:0090H         SYMBOL        P1
  D:00BDH         SYMBOL        P1MDIN
  D:00A5H         SYMBOL        P1MDOUT
  D:00A0H         SYMBOL        P2
  D:00A6H         SYMBOL        P2MDOUT
  D:00B0H         SYMBOL        P3
  D:00ADH         SYMBOL        P3IF
  D:00A7H         SYMBOL        P3MDOUT
  D:0084H         SYMBOL        P4
  D:0085H         SYMBOL        P5
  D:0086H         SYMBOL        P6
  D:0096H         SYMBOL        P7
  D:00B5H         SYMBOL        P74OUT
  D:00D8H         SYMBOL        PCA0CN
  D:00FAH         SYMBOL        PCA0CPH0
  D:00FBH         SYMBOL        PCA0CPH1
  D:00FCH         SYMBOL        PCA0CPH2
  D:00FDH         SYMBOL        PCA0CPH3
BL51 BANKED LINKER/LOCATER V6.05            07/03/2008  13:36:55  PAGE 4


  D:00FEH         SYMBOL        PCA0CPH4
  D:00EAH         SYMBOL        PCA0CPL0
  D:00EBH         SYMBOL        PCA0CPL1
  D:00ECH         SYMBOL        PCA0CPL2
  D:00EDH         SYMBOL        PCA0CPL3
  D:00EEH         SYMBOL        PCA0CPL4
  D:00DAH         SYMBOL        PCA0CPM0
  D:00DBH         SYMBOL        PCA0CPM1
  D:00DCH         SYMBOL        PCA0CPM2
  D:00DDH         SYMBOL        PCA0CPM3
  D:00DEH         SYMBOL        PCA0CPM4
  D:00F9H         SYMBOL        PCA0H
  D:00E9H         SYMBOL        PCA0L
  D:00D9H         SYMBOL        PCA0MD
  D:0087H         SYMBOL        PCON
  C:0347H         SYMBOL        PORT_IO_INIT
  B:00B8H.4       SYMBOL        PS
  D:008FH         SYMBOL        PSCTL
  D:00D0H         SYMBOL        PSW
  B:00B8H.1       SYMBOL        PT0
  B:00B8H.3       SYMBOL        PT1
  B:00B8H.5       SYMBOL        PT2
  B:00B8H.0       SYMBOL        PX0
  B:00B8H.2       SYMBOL        PX1
  B:0098H.2       SYMBOL        RB8
  D:00CBH         SYMBOL        RCAP2H
  D:00CAH         SYMBOL        RCAP2L
  D:00E5H         SYMBOL        RCAP4H
  D:00E4H         SYMBOL        RCAP4L
  B:00C8H.5       SYMBOL        RCLK
  D:00D1H         SYMBOL        REF0CN
  B:0098H.4       SYMBOL        REN
  C:0338H         SYMBOL        RESET_SOURCES_INIT
  B:0098H.0       SYMBOL        RI
  B:00D0H.3       SYMBOL        RS0
  B:00D0H.4       SYMBOL        RS1
  D:00EFH         SYMBOL        RSTSRC
  B:00F8H.4       SYMBOL        RXOVRN
  D:00A9H         SYMBOL        SADDR0
  D:00F3H         SYMBOL        SADDR1
  D:00B9H         SYMBOL        SADEN0
  D:00AEH         SYMBOL        SADEN1
  D:0099H         SYMBOL        SBUF0
  D:00F2H         SYMBOL        SBUF1
  D:0098H         SYMBOL        SCON0
  D:00F1H         SYMBOL        SCON1
  B:00C0H.3       SYMBOL        SI
  B:00F8H.2       SYMBOL        SLVSEL
  B:0098H.7       SYMBOL        SM0
  B:0098H.6       SYMBOL        SM1
  B:0098H.5       SYMBOL        SM2
  D:00C3H         SYMBOL        SMB0ADR
  D:00C0H         SYMBOL        SMB0CN
  D:00CFH         SYMBOL        SMB0CR
  D:00C2H         SYMBOL        SMB0DAT
  D:00C1H         SYMBOL        SMB0STA
  B:00C0H.1       SYMBOL        SMBFTE
  B:00C0H.0       SYMBOL        SMBTOE
  D:0081H         SYMBOL        SP
  D:009AH         SYMBOL        SPI0CFG
  D:009DH         SYMBOL        SPI0CKR
  D:00F8H         SYMBOL        SPI0CN
  D:009BH         SYMBOL        SPI0DAT
  B:00F8H.0       SYMBOL        SPIEN
  B:00F8H.7       SYMBOL        SPIF
BL51 BANKED LINKER/LOCATER V6.05            07/03/2008  13:36:55  PAGE 5


  B:00C0H.5       SYMBOL        STA
  B:00C0H.4       SYMBOL        STO
  D:00C8H         SYMBOL        T2CON
  D:00C9H         SYMBOL        T4CON
  B:0098H.3       SYMBOL        TB8
  B:00C8H.4       SYMBOL        TCLK
  D:0088H         SYMBOL        TCON
  B:0088H.5       SYMBOL        TF0
  B:0088H.7       SYMBOL        TF1
  B:00C8H.7       SYMBOL        TF2
  D:008CH         SYMBOL        TH0
  D:008DH         SYMBOL        TH1
  D:00CDH         SYMBOL        TH2
  D:00F5H         SYMBOL        TH4
  B:0098H.1       SYMBOL        TI
  C:033FH         SYMBOL        TIMER_INIT
  D:008AH         SYMBOL        TL0
  D:008BH         SYMBOL        TL1
  D:00CCH         SYMBOL        TL2
  D:00F4H         SYMBOL        TL4
  D:0089H         SYMBOL        TMOD
  D:0091H         SYMBOL        TMR3CN
  D:0095H         SYMBOL        TMR3H
  D:0094H         SYMBOL        TMR3L
  D:0093H         SYMBOL        TMR3RLH
  D:0092H         SYMBOL        TMR3RLL
  B:0088H.4       SYMBOL        TR0
  B:0088H.6       SYMBOL        TR1
  B:00C8H.2       SYMBOL        TR2
  B:00F8H.3       SYMBOL        TXBSY
  B:00F8H.6       SYMBOL        WCOL
  D:00FFH         SYMBOL        WDTCN
  D:00E1H         SYMBOL        XBR0
  D:00E2H         SYMBOL        XBR1
  D:00E3H         SYMBOL        XBR2
  C:0000H         LINE#         62
  C:0003H         LINE#         69
  C:0030H         LINE#         81
  C:0033H         LINE#         82
  C:0036H         LINE#         83
  C:0039H         LINE#         90
  C:003CH         LINE#         91
  C:003FH         LINE#         92
  C:0040H         LINE#         93
  C:0043H         LINE#         95
  C:0046H         LINE#         96
  C:0049H         LINE#         97
  C:004CH         LINE#         99
  C:004FH         LINE#         100
  C:0052H         LINE#         106
  C:0055H         LINE#         107
  C:0058H         LINE#         108
  C:0059H         LINE#         109
  C:005CH         LINE#         111
  C:005FH         LINE#         112
  C:0062H         LINE#         113
  C:0065H         LINE#         115
  C:0068H         LINE#         116
  C:006BH         LINE#         122
  C:006EH         LINE#         123
  C:0071H         LINE#         124
  C:0072H         LINE#         125
  C:0075H         LINE#         127
  C:0078H         LINE#         128
  C:007BH         LINE#         129
BL51 BANKED LINKER/LOCATER V6.05            07/03/2008  13:36:55  PAGE 6


  C:007EH         LINE#         131
  C:0081H         LINE#         132
  C:0084H         LINE#         142
  C:0087H         LINE#         143
  C:008AH         LINE#         144
  C:008BH         LINE#         145
  C:008EH         LINE#         147
  C:0091H         LINE#         148
  C:0094H         LINE#         149
  C:0097H         LINE#         153
  C:0099H         LINE#         154
  C:009BH         LINE#         156
  C:009EH         LINE#         157
  C:00A1H         LINE#         158
  C:00A2H         LINE#         159
  C:00A5H         LINE#         161
  C:00A7H         LINE#         162
  C:00A9H         LINE#         164
  C:00ACH         LINE#         166
  C:00AFH         LINE#         170
  C:00B1H         LINE#         171
  C:00B3H         LINE#         173
  C:00B6H         LINE#         174
  C:00B9H         LINE#         175
  C:00BAH         LINE#         176
  C:00BDH         LINE#         178
  C:00BFH         LINE#         179
  C:00C1H         LINE#         181
  C:00C4H         LINE#         183
  C:00C7H         LINE#         187
  C:00C9H         LINE#         188
  C:00CBH         LINE#         190
  C:00CEH         LINE#         191
  C:00D1H         LINE#         192
  C:00D2H         LINE#         193
  C:00D5H         LINE#         195
  C:00D7H         LINE#         196
  C:00D9H         LINE#         198
  C:00DCH         LINE#         200
  C:00DFH         LINE#         202
  C:00E2H         LINE#         203
  C:00E5H         LINE#         212
  C:00E8H         LINE#         213
  C:00EBH         LINE#         214
  C:00ECH         LINE#         215
  C:00EFH         LINE#         217
  C:00F2H         LINE#         218
  C:00F5H         LINE#         219
  C:00F8H         LINE#         223
  C:00FAH         LINE#         224
  C:00FCH         LINE#         226
  C:00FFH         LINE#         227
  C:0102H         LINE#         228
  C:0103H         LINE#         229
  C:0106H         LINE#         231
  C:0108H         LINE#         232
  C:010AH         LINE#         234
  C:010DH         LINE#         236
  C:0110H         LINE#         240
  C:0112H         LINE#         241
  C:0114H         LINE#         243
  C:0117H         LINE#         244
  C:011AH         LINE#         245
  C:011BH         LINE#         246
  C:011EH         LINE#         248
BL51 BANKED LINKER/LOCATER V6.05            07/03/2008  13:36:55  PAGE 7


  C:0120H         LINE#         249
  C:0122H         LINE#         251
  C:0125H         LINE#         253
  C:0128H         LINE#         257
  C:012AH         LINE#         258
  C:012CH         LINE#         260
  C:012FH         LINE#         261
  C:0132H         LINE#         262
  C:0133H         LINE#         263
  C:0136H         LINE#         265
  C:0138H         LINE#         266
  C:013AH         LINE#         268
  C:013DH         LINE#         270
  C:0140H         LINE#         272
  C:0143H         LINE#         273
  C:0146H         LINE#         279
  C:0149H         LINE#         280
  C:014CH         LINE#         281
  C:014DH         LINE#         282
  C:0150H         LINE#         284
  C:0153H         LINE#         285
  C:0156H         LINE#         286
  C:0159H         LINE#         293
  C:015CH         LINE#         295
  C:015FH         LINE#         296
  C:0161H         LINE#         298
  C:0164H         LINE#         299
  C:0167H         LINE#         300
  C:0168H         LINE#         301
  C:016BH         LINE#         303
  C:016DH         LINE#         306
  C:016FH         LINE#         320
  C:0171H         LINE#         321
  C:0173H         LINE#         322
  C:0175H         LINE#         323
  C:0177H         LINE#         324
  C:0179H         LINE#         326
  C:017CH         LINE#         327
  C:017DH         LINE#         328
  C:017FH         LINE#         331
  C:0181H         LINE#         334
  C:0183H         LINE#         335
  C:0184H         LINE#         336
  C:0186H         LINE#         337
  C:0188H         LINE#         338
  C:018AH         LINE#         341
  C:018CH         LINE#         342
  C:018DH         LINE#         343
  C:018FH         LINE#         344
  C:0191H         LINE#         345
  C:0193H         LINE#         348
  C:0195H         LINE#         349
  C:0196H         LINE#         350
  C:0198H         LINE#         351
  C:019AH         LINE#         352
  C:019CH         LINE#         355
  C:019EH         LINE#         356
  C:019FH         LINE#         357
  C:01A1H         LINE#         358
  C:01A3H         LINE#         359
  C:01A5H         LINE#         362
  C:01A7H         LINE#         363
  C:01A8H         LINE#         364
  C:01AAH         LINE#         365
  C:01ACH         LINE#         366
BL51 BANKED LINKER/LOCATER V6.05            07/03/2008  13:36:55  PAGE 8


  C:01AEH         LINE#         369
  C:01B0H         LINE#         370
  C:01B1H         LINE#         371
  C:01B3H         LINE#         372
  C:01B5H         LINE#         373
  C:01B7H         LINE#         376
  C:01BAH         LINE#         382
  C:01BBH         LINE#         386
  C:01BEH         LINE#         387
  C:01BFH         LINE#         388
  C:01C2H         LINE#         389
  C:01C4H         LINE#         392
  C:01C6H         LINE#         393
  C:01C9H         LINE#         394
  C:01CBH         LINE#         397
  C:01CDH         LINE#         398
  C:01D0H         LINE#         399
  C:01D2H         LINE#         402
  C:01D4H         LINE#         403
  C:01D7H         LINE#         404
  C:01D9H         LINE#         407
  C:01DBH         LINE#         408
  C:01DEH         LINE#         409
  C:01E0H         LINE#         412
  C:01E2H         LINE#         413
  C:01E5H         LINE#         414
  C:01E7H         LINE#         418
  C:01EAH         LINE#         419
  C:01EDH         LINE#         420
  C:01EEH         LINE#         421
  C:01F1H         LINE#         423
  C:01F4H         LINE#         424
  C:01F7H         LINE#         425
  C:01F8H         LINE#         426
  C:01FBH         LINE#         428
  C:01FEH         LINE#         429
  C:0201H         LINE#         430
  C:0202H         LINE#         431
  C:0205H         LINE#         432
  C:0207H         LINE#         435
  C:0209H         LINE#         436
  C:020BH         LINE#         437
  C:020EH         LINE#         438
  C:0210H         LINE#         439
  C:0212H         LINE#         442
  C:0214H         LINE#         443
  C:0217H         LINE#         444
  C:021AH         LINE#         445
  C:021BH         LINE#         446
  C:021EH         LINE#         449
  C:0221H         LINE#         450
  C:0224H         LINE#         451
  C:0225H         LINE#         452
  C:0227H         LINE#         453
  C:022AH         LINE#         454
  C:022CH         LINE#         455
  C:022EH         LINE#         456
  C:0230H         LINE#         460
  C:0233H         LINE#         462
  C:0235H         LINE#         463
  C:0237H         LINE#         464
  C:0239H         LINE#         465
  C:023BH         LINE#         466
  C:023DH         LINE#         468
  C:023EH         LINE#         482
BL51 BANKED LINKER/LOCATER V6.05            07/03/2008  13:36:55  PAGE 9


  C:0240H         LINE#         483
  C:0242H         LINE#         484
  C:0243H         LINE#         496
  C:0246H         LINE#         500
  C:0248H         LINE#         501
  C:024AH         LINE#         502
  C:024CH         LINE#         503
  C:024EH         LINE#         504
  C:0250H         LINE#         505
  C:0251H         LINE#         518
  C:0254H         LINE#         522
  C:0256H         LINE#         523
  C:0258H         LINE#         524
  C:025AH         LINE#         525
  C:025CH         LINE#         526
  C:025EH         LINE#         527
  C:025FH         LINE#         538
  C:0262H         LINE#         542
  C:0264H         LINE#         543
  C:0266H         LINE#         544
  C:0268H         LINE#         545
  C:026AH         LINE#         546
  C:026CH         LINE#         547
  C:026DH         LINE#         558
  C:0270H         LINE#         562
  C:0272H         LINE#         563
  C:0274H         LINE#         564
  C:0276H         LINE#         565
  C:0278H         LINE#         566
  C:027AH         LINE#         567
  C:027BH         LINE#         582
  C:027DH         LINE#         583
  C:027FH         LINE#         584
  C:0281H         LINE#         587
  C:0284H         LINE#         589
  C:0287H         LINE#         591
  C:028AH         LINE#         593
  C:028DH         LINE#         595
  C:028FH         LINE#         598
  C:0292H         LINE#         600
  C:0295H         LINE#         601
  C:0297H         LINE#         603
  C:029AH         LINE#         604
  C:029CH         LINE#         607
  C:029FH         LINE#         609
  C:02A2H         LINE#         610
  C:02A4H         LINE#         612
  C:02A7H         LINE#         613
  C:02A9H         LINE#         617
  C:02ACH         LINE#         619
  C:02AFH         LINE#         620
  C:02B1H         LINE#         622
  C:02B4H         LINE#         623
  C:02B6H         LINE#         626
  C:02B9H         LINE#         627
  C:02BBH         LINE#         630
  C:02BDH         LINE#         631
  C:02BFH         LINE#         632
  C:02C1H         LINE#         634
  C:02C2H         LINE#         642
  C:02C5H         LINE#         643
  C:02C8H         LINE#         644
  C:02C9H         LINE#         645
  C:02CCH         LINE#         647
  C:02CFH         LINE#         648
BL51 BANKED LINKER/LOCATER V6.05            07/03/2008  13:36:55  PAGE 10


  C:02D2H         LINE#         649
  C:02D3H         LINE#         650
  C:02D6H         LINE#         652
  C:02D9H         LINE#         653
  C:02DCH         LINE#         654
  C:02DDH         LINE#         655
  C:02E0H         LINE#         657
  C:02E3H         LINE#         659
  C:02E4H         LINE#         672
  C:02E6H         LINE#         673
  C:02E8H         LINE#         674
  C:02EAH         LINE#         675
  C:02ECH         LINE#         676
  C:02EEH         LINE#         677
  C:02EFH         LINE#         678
  C:02F1H         LINE#         679
  C:02F4H         LINE#         680
  C:02F5H         LINE#         681
  C:02F8H         LINE#         684
  C:02FAH         LINE#         685
  C:02FCH         LINE#         686
  C:02FEH         LINE#         687
  C:0300H         LINE#         688
  C:0302H         LINE#         689
  C:0303H         LINE#         691
  C:0305H         LINE#         694
  C:0307H         LINE#         695
  C:0309H         LINE#         696
  C:030BH         LINE#         697
  C:030DH         LINE#         698
  C:030FH         LINE#         699
  C:0310H         LINE#         701
  C:0311H         LINE#         715
  C:0313H         LINE#         716
  C:0316H         LINE#         717
  C:0319H         LINE#         718
  C:031BH         LINE#         721
  C:031EH         LINE#         722
  C:0320H         LINE#         723
  C:0322H         LINE#         724
  C:0324H         LINE#         725
  C:0325H         LINE#         734
  C:0328H         LINE#         735
  C:032BH         LINE#         736
  C:032CH         LINE#         737
  C:032FH         LINE#         738
  C:0330H         LINE#         745
  C:0333H         LINE#         746
  C:0334H         LINE#         747
  C:0337H         LINE#         748
  C:0338H         LINE#         758
  C:033BH         LINE#         759
  C:033EH         LINE#         760
  C:033FH         LINE#         763
  C:0342H         LINE#         764
  C:0343H         LINE#         767
  C:0346H         LINE#         768
  C:0347H         LINE#         807
  C:034AH         LINE#         808
  C:034DH         LINE#         809
  C:0350H         LINE#         810
  C:0353H         LINE#         811
  C:0356H         LINE#         812
  C:0359H         LINE#         813
  C:035AH         LINE#         818
BL51 BANKED LINKER/LOCATER V6.05            07/03/2008  13:36:55  PAGE 11


  C:035DH         LINE#         819
  C:035FH         LINE#         821
  C:0360H         LINE#         822
  C:0363H         LINE#         823
  C:0365H         LINE#         825
  C:0367H         LINE#         826
  C:036AH         LINE#         827
  C:036DH         LINE#         828
  C:036EH         LINE#         831
  C:0371H         LINE#         832
  C:0372H         LINE#         838
  C:0375H         LINE#         839
  C:0378H         LINE#         840
  C:037BH         LINE#         841
  C:037EH         LINE#         842
  C:0381H         LINE#         843
  C:0384H         LINE#         844
  -------         ENDMOD        LCD_TEST

Program Size: data=8.0 xdata=0 code=1151
LINK/LOCATE RUN COMPLETE.  0 WARNING(S),  0 ERROR(S)
